	.file	"fib.cpp"
	.text
	.p2align 4,,15
	.globl	_Z3fibi
	.type	_Z3fibi, @function
_Z3fibi:
.LFB57:
	.cfi_startproc
	pushq	%r15
	.cfi_def_cfa_offset 16
	.cfi_offset 15, -16
	pushq	%r14
	.cfi_def_cfa_offset 24
	.cfi_offset 14, -24
	pushq	%r13
	.cfi_def_cfa_offset 32
	.cfi_offset 13, -32
	pushq	%r12
	.cfi_def_cfa_offset 40
	.cfi_offset 12, -40
	pushq	%rbp
	.cfi_def_cfa_offset 48
	.cfi_offset 6, -48
	pushq	%rbx
	.cfi_def_cfa_offset 56
	.cfi_offset 3, -56
	subq	$88, %rsp
	.cfi_def_cfa_offset 144
	testl	%edi, %edi
	je	.L36
	cmpl	$1, %edi
	je	.L36
	leal	-2(%rdi), %eax
	movl	$0, 52(%rsp)
	movl	%eax, 56(%rsp)
	leal	-1(%rdi), %eax
	movl	%eax, %edx
	movl	%eax, 76(%rsp)
	testl	%edx, %edx
	movl	%edx, %eax
	je	.L39
.L98:
	cmpl	$1, %edx
	je	.L39
	movl	56(%rsp), %edx
	movl	$0, 40(%rsp)
	movl	%edx, 64(%rsp)
.L5:
	movl	64(%rsp), %edx
	testl	%edx, %edx
	movl	%edx, %ecx
	je	.L81
	cmpl	$1, 64(%rsp)
	je	.L83
	subl	$2, %eax
	movl	$0, 44(%rsp)
	movl	%eax, 72(%rsp)
	movl	%eax, 68(%rsp)
.L8:
	movl	68(%rsp), %eax
	testl	%eax, %eax
	movl	%eax, %edx
	je	.L80
	cmpl	$1, 68(%rsp)
	je	.L84
	leal	-2(%rcx), %eax
	movl	$0, 48(%rsp)
	movl	%eax, 60(%rsp)
	movl	%eax, 32(%rsp)
.L11:
	movl	32(%rsp), %ecx
	testl	%ecx, %ecx
	movl	%ecx, %eax
	je	.L79
	cmpl	$1, 32(%rsp)
	je	.L85
	subl	$2, %edx
	movl	$0, 28(%rsp)
	movl	%edx, 36(%rsp)
	movl	%edx, 20(%rsp)
.L14:
	movl	20(%rsp), %ecx
	testl	%ecx, %ecx
	movl	%ecx, %edx
	je	.L78
	cmpl	$1, 20(%rsp)
	je	.L86
	subl	$2, %eax
	movl	$0, 16(%rsp)
	movl	%eax, 24(%rsp)
	movl	%eax, 8(%rsp)
.L17:
	movl	8(%rsp), %ecx
	testl	%ecx, %ecx
	movl	%ecx, %eax
	je	.L77
	cmpl	$1, 8(%rsp)
	je	.L87
	subl	$2, %edx
	movl	$0, 4(%rsp)
	movl	%edx, 12(%rsp)
	movl	%edx, %r13d
.L20:
	testl	%r13d, %r13d
	movl	%r13d, %ebp
	je	.L76
	cmpl	$1, %r13d
	je	.L88
	subl	$2, %eax
	xorl	%r12d, %r12d
	movl	%eax, (%rsp)
	movl	%eax, %ebx
.L23:
	testl	%ebx, %ebx
	movl	%ebx, %r14d
	je	.L24
	xorl	%r15d, %r15d
	cmpl	$1, %ebx
	je	.L89
.L25:
	leal	-1(%r14), %edi
	call	_Z3fibi
	addl	%eax, %r15d
	subl	$2, %r14d
	je	.L90
	cmpl	$1, %r14d
	jne	.L25
	leal	1(%r15,%r12), %r12d
.L24:
	subl	$2, %ebp
	je	.L91
.L27:
	subl	$2, %ebx
	cmpl	$1, %ebp
	jne	.L23
	movl	4(%rsp), %eax
	movl	(%rsp), %esi
	leal	1(%rax,%r12), %eax
	movl	%eax, 4(%rsp)
.L21:
	testl	%esi, %esi
	movl	%esi, %eax
	je	.L92
.L28:
	subl	$2, %r13d
	cmpl	$1, (%rsp)
	jne	.L20
	movl	16(%rsp), %eax
	movl	4(%rsp), %edx
	leal	1(%rax,%rdx), %eax
	movl	%eax, 16(%rsp)
	movl	12(%rsp), %eax
.L18:
	testl	%eax, %eax
	movl	%eax, %edx
	je	.L93
.L29:
	subl	$2, 8(%rsp)
	cmpl	$1, 12(%rsp)
	jne	.L17
	movl	28(%rsp), %eax
	movl	16(%rsp), %edx
	leal	1(%rax,%rdx), %eax
	movl	24(%rsp), %edx
	movl	%eax, 28(%rsp)
.L15:
	testl	%edx, %edx
	movl	%edx, %eax
	je	.L94
.L30:
	subl	$2, 20(%rsp)
	cmpl	$1, 24(%rsp)
	jne	.L14
	movl	48(%rsp), %eax
	movl	28(%rsp), %edx
	leal	1(%rax,%rdx), %eax
	movl	%eax, 48(%rsp)
	movl	36(%rsp), %eax
.L12:
	testl	%eax, %eax
	movl	%eax, %edx
	je	.L95
.L31:
	subl	$2, 32(%rsp)
	cmpl	$1, 36(%rsp)
	jne	.L11
	movl	44(%rsp), %eax
	movl	48(%rsp), %edx
	leal	1(%rax,%rdx), %eax
	movl	%eax, 44(%rsp)
	movl	60(%rsp), %eax
.L9:
	testl	%eax, %eax
	movl	%eax, %ecx
	je	.L96
.L32:
	subl	$2, 68(%rsp)
	cmpl	$1, 60(%rsp)
	jne	.L8
	movl	40(%rsp), %eax
	movl	44(%rsp), %edx
	leal	1(%rax,%rdx), %eax
	movl	%eax, 40(%rsp)
	movl	72(%rsp), %eax
.L6:
	testl	%eax, %eax
	je	.L4
	subl	$2, 64(%rsp)
	cmpl	$1, %eax
	jne	.L5
.L4:
	addl	40(%rsp), %eax
	addl	%eax, 52(%rsp)
	movl	56(%rsp), %eax
	testl	%eax, %eax
	je	.L97
	movl	56(%rsp), %edx
	subl	$2, 76(%rsp)
	cmpl	$1, %edx
	leal	-2(%rdx), %eax
	je	.L37
	movl	76(%rsp), %edx
	movl	%eax, 56(%rsp)
	testl	%edx, %edx
	movl	%edx, %eax
	jne	.L98
.L39:
	movl	$0, 40(%rsp)
	jmp	.L4
	.p2align 4,,10
	.p2align 3
.L90:
	addl	%r15d, %r12d
	subl	$2, %ebp
	jne	.L27
.L91:
	movl	(%rsp), %esi
	addl	%r12d, 4(%rsp)
	testl	%esi, %esi
	movl	%esi, %eax
	jne	.L28
.L92:
	movl	12(%rsp), %eax
	movl	4(%rsp), %edx
	addl	%edx, 16(%rsp)
	testl	%eax, %eax
	movl	%eax, %edx
	jne	.L29
.L93:
	movl	16(%rsp), %edx
	addl	%edx, 28(%rsp)
	movl	24(%rsp), %edx
	testl	%edx, %edx
	movl	%edx, %eax
	jne	.L30
.L94:
	movl	36(%rsp), %eax
	movl	28(%rsp), %esi
	addl	%esi, 48(%rsp)
	testl	%eax, %eax
	movl	%eax, %edx
	jne	.L31
.L95:
	movl	60(%rsp), %eax
	movl	48(%rsp), %edx
	addl	%edx, 44(%rsp)
	testl	%eax, %eax
	movl	%eax, %ecx
	jne	.L32
.L96:
	movl	44(%rsp), %esi
	movl	72(%rsp), %eax
	addl	%esi, 40(%rsp)
	jmp	.L6
	.p2align 4,,10
	.p2align 3
.L89:
	addl	$1, %r12d
	jmp	.L24
	.p2align 4,,10
	.p2align 3
.L88:
	addl	$1, 4(%rsp)
.L76:
	subl	$2, %eax
	movl	%eax, (%rsp)
	movl	%eax, %esi
	jmp	.L21
.L87:
	addl	$1, 16(%rsp)
.L77:
	leal	-2(%rdx), %eax
	movl	%eax, 12(%rsp)
	jmp	.L18
.L86:
	addl	$1, 28(%rsp)
.L78:
	subl	$2, %eax
	movl	%eax, 24(%rsp)
	movl	%eax, %edx
	jmp	.L15
.L85:
	addl	$1, 48(%rsp)
.L79:
	leal	-2(%rdx), %eax
	movl	%eax, 36(%rsp)
	jmp	.L12
.L84:
	addl	$1, 44(%rsp)
.L80:
	leal	-2(%rcx), %eax
	movl	%eax, 60(%rsp)
	jmp	.L9
.L83:
	addl	$1, 40(%rsp)
.L81:
	subl	$2, %eax
	movl	%eax, 72(%rsp)
	jmp	.L6
.L37:
	movl	$1, %edi
.L2:
	movl	52(%rsp), %eax
	addq	$88, %rsp
	.cfi_remember_state
	.cfi_def_cfa_offset 56
	popq	%rbx
	.cfi_def_cfa_offset 48
	popq	%rbp
	.cfi_def_cfa_offset 40
	addl	%edi, %eax
	popq	%r12
	.cfi_def_cfa_offset 32
	popq	%r13
	.cfi_def_cfa_offset 24
	popq	%r14
	.cfi_def_cfa_offset 16
	popq	%r15
	.cfi_def_cfa_offset 8
	ret
.L97:
	.cfi_restore_state
	xorl	%edi, %edi
	jmp	.L2
.L36:
	movl	$0, 52(%rsp)
	jmp	.L2
	.cfi_endproc
.LFE57:
	.size	_Z3fibi, .-_Z3fibi
	.section	.text.startup,"ax",@progbits
	.p2align 4,,15
	.globl	main
	.type	main, @function
main:
.LFB58:
	.cfi_startproc
	movl	$1, %edi
	leal	1(%rdi), %r10d
	cmpl	$45, %r10d
	je	.L109
	subq	$8, %rsp
	.cfi_def_cfa_offset 16
	.p2align 4,,10
	.p2align 3
.L102:
	leal	-2(%rdi), %r8d
	leal	-1(%rdi), %eax
	movl	%r8d, %r9d
	andl	$-2, %eax
	subl	%eax, %r9d
	call	_Z3fibi
	cmpl	%r9d, %r8d
	movl	%r8d, %edi
	je	.L104
.L110:
	subl	$2, %r8d
	call	_Z3fibi
	cmpl	%r9d, %r8d
	movl	%r8d, %edi
	jne	.L110
.L104:
	movl	%r10d, %edi
	leal	1(%r10), %r10d
	cmpl	$45, %r10d
	jne	.L102
	xorl	%eax, %eax
	addq	$8, %rsp
	.cfi_def_cfa_offset 8
	ret
.L109:
	xorl	%eax, %eax
	ret
	.cfi_endproc
.LFE58:
	.size	main, .-main
	.ident	"GCC: (Ubuntu 7.4.0-1ubuntu1~18.04) 7.4.0"
	.section	.note.GNU-stack,"",@progbits
