; ModuleID = '../benchmarks/teste.cpp'
source_filename = "../benchmarks/teste.cpp"
target datalayout = "e-m:e-i64:64-f80:128-n8:16:32:64-S128"
target triple = "x86_64-pc-linux-gnu"

%"class.std::ios_base::Init" = type { i8 }
%"struct.std::chrono::time_point" = type { %"struct.std::chrono::duration" }
%"struct.std::chrono::duration" = type { i64 }
%"struct.std::chrono::duration.0" = type { double }

$_ZNSt6chronomiINS_3_V212system_clockENS_8durationIlSt5ratioILl1ELl1000000000EEEES6_EENSt11common_typeIJT0_T1_EE4typeERKNS_10time_pointIT_S8_EERKNSC_ISD_S9_EE = comdat any

$_ZNSt6chrono8durationIdSt5ratioILl1ELl1EEEC2IlS1_ILl1ELl1000000000EEvEERKNS0_IT_T0_EE = comdat any

$_ZNKSt6chrono8durationIdSt5ratioILl1ELl1EEE5countEv = comdat any

$_ZNSt6chronomiIlSt5ratioILl1ELl1000000000EElS2_EENSt11common_typeIJNS_8durationIT_T0_EENS4_IT1_T2_EEEE4typeERKS7_RKSA_ = comdat any

$_ZNKSt6chrono10time_pointINS_3_V212system_clockENS_8durationIlSt5ratioILl1ELl1000000000EEEEE16time_since_epochEv = comdat any

$_ZNKSt6chrono8durationIlSt5ratioILl1ELl1000000000EEE5countEv = comdat any

$_ZNSt6chrono8durationIlSt5ratioILl1ELl1000000000EEEC2IlvEERKT_ = comdat any

$_ZNSt6chrono13duration_castINS_8durationIdSt5ratioILl1ELl1EEEElS2_ILl1ELl1000000000EEEENSt9enable_ifIXsr13__is_durationIT_EE5valueES7_E4typeERKNS1_IT0_T1_EE = comdat any

$_ZNSt6chrono20__duration_cast_implINS_8durationIdSt5ratioILl1ELl1EEEES2_ILl1ELl1000000000EEdLb1ELb0EE6__castIlS5_EES4_RKNS1_IT_T0_EE = comdat any

$_ZNSt6chrono8durationIdSt5ratioILl1ELl1EEEC2IdvEERKT_ = comdat any

@_ZStL8__ioinit = internal global %"class.std::ios_base::Init" zeroinitializer, align 1
@__dso_handle = external hidden global i8
@.str = private unnamed_addr constant [3 x i8] c"%f\00", align 1
@llvm.global_ctors = appending global [1 x { i32, void ()*, i8* }] [{ i32, void ()*, i8* } { i32 65535, void ()* @_GLOBAL__sub_I_teste.cpp, i8* null }]

; Function Attrs: noinline uwtable
define internal void @__cxx_global_var_init() #0 section ".text.startup" {
  call void @_ZNSt8ios_base4InitC1Ev(%"class.std::ios_base::Init"* @_ZStL8__ioinit)
  %1 = call i32 @__cxa_atexit(void (i8*)* bitcast (void (%"class.std::ios_base::Init"*)* @_ZNSt8ios_base4InitD1Ev to void (i8*)*), i8* getelementptr inbounds (%"class.std::ios_base::Init", %"class.std::ios_base::Init"* @_ZStL8__ioinit, i32 0, i32 0), i8* @__dso_handle) #3
  ret void
}

declare dso_local void @_ZNSt8ios_base4InitC1Ev(%"class.std::ios_base::Init"*) unnamed_addr #1

; Function Attrs: nounwind
declare dso_local void @_ZNSt8ios_base4InitD1Ev(%"class.std::ios_base::Init"*) unnamed_addr #2

; Function Attrs: nounwind
declare dso_local i32 @__cxa_atexit(void (i8*)*, i8*, i8*) #3

; Function Attrs: noinline optnone uwtable
define dso_local i32 @_Z1fi(i32) #4 {
  %2 = alloca i32, align 4
  %3 = alloca i32, align 4
  store i32 %0, i32* %3, align 4
  %4 = load i32, i32* %3, align 4
  %5 = icmp eq i32 %4, 1
  br i1 %5, label %6, label %7

; <label>:6:                                      ; preds = %1
  store i32 1, i32* %2, align 4
  br label %19

; <label>:7:                                      ; preds = %1
  %8 = load i32, i32* %3, align 4
  %9 = icmp eq i32 %8, 2
  br i1 %9, label %10, label %11

; <label>:10:                                     ; preds = %7
  store i32 1, i32* %2, align 4
  br label %19

; <label>:11:                                     ; preds = %7
  %12 = load i32, i32* %3, align 4
  %13 = sub nsw i32 %12, 1
  %14 = call i32 @_Z1fi(i32 %13)
  %15 = load i32, i32* %3, align 4
  %16 = sub nsw i32 %15, 2
  %17 = call i32 @_Z1fi(i32 %16)
  %18 = add nsw i32 %14, %17
  store i32 %18, i32* %2, align 4
  br label %19

; <label>:19:                                     ; preds = %11, %10, %6
  %20 = load i32, i32* %2, align 4
  ret i32 %20
}

; Function Attrs: noinline norecurse optnone uwtable
define dso_local i32 @main() #5 {
  %1 = alloca i32, align 4
  %2 = alloca double, align 8
  %3 = alloca i32, align 4
  %4 = alloca %"struct.std::chrono::time_point", align 8
  %5 = alloca i32, align 4
  %6 = alloca %"struct.std::chrono::duration.0", align 8
  %7 = alloca %"struct.std::chrono::duration", align 8
  %8 = alloca %"struct.std::chrono::time_point", align 8
  store i32 0, i32* %1, align 4
  store double 0.000000e+00, double* %2, align 8
  store i32 0, i32* %3, align 4
  br label %9

; <label>:9:                                      ; preds = %26, %0
  %10 = load i32, i32* %3, align 4
  %11 = icmp slt i32 %10, 10
  br i1 %11, label %12, label %29

; <label>:12:                                     ; preds = %9
  %13 = call i64 @_ZNSt6chrono3_V212system_clock3nowEv() #3
  %14 = getelementptr inbounds %"struct.std::chrono::time_point", %"struct.std::chrono::time_point"* %4, i32 0, i32 0
  %15 = getelementptr inbounds %"struct.std::chrono::duration", %"struct.std::chrono::duration"* %14, i32 0, i32 0
  store i64 %13, i64* %15, align 8
  %16 = call i32 @_Z1fi(i32 10)
  store i32 %16, i32* %5, align 4
  %17 = call i64 @_ZNSt6chrono3_V212system_clock3nowEv() #3
  %18 = getelementptr inbounds %"struct.std::chrono::time_point", %"struct.std::chrono::time_point"* %8, i32 0, i32 0
  %19 = getelementptr inbounds %"struct.std::chrono::duration", %"struct.std::chrono::duration"* %18, i32 0, i32 0
  store i64 %17, i64* %19, align 8
  %20 = call i64 @_ZNSt6chronomiINS_3_V212system_clockENS_8durationIlSt5ratioILl1ELl1000000000EEEES6_EENSt11common_typeIJT0_T1_EE4typeERKNS_10time_pointIT_S8_EERKNSC_ISD_S9_EE(%"struct.std::chrono::time_point"* dereferenceable(8) %8, %"struct.std::chrono::time_point"* dereferenceable(8) %4)
  %21 = getelementptr inbounds %"struct.std::chrono::duration", %"struct.std::chrono::duration"* %7, i32 0, i32 0
  store i64 %20, i64* %21, align 8
  call void @_ZNSt6chrono8durationIdSt5ratioILl1ELl1EEEC2IlS1_ILl1ELl1000000000EEvEERKNS0_IT_T0_EE(%"struct.std::chrono::duration.0"* %6, %"struct.std::chrono::duration"* dereferenceable(8) %7)
  %22 = call double @_ZNKSt6chrono8durationIdSt5ratioILl1ELl1EEE5countEv(%"struct.std::chrono::duration.0"* %6)
  %23 = fmul double %22, 1.000000e+03
  %24 = load double, double* %2, align 8
  %25 = fadd double %24, %23
  store double %25, double* %2, align 8
  br label %26

; <label>:26:                                     ; preds = %12
  %27 = load i32, i32* %3, align 4
  %28 = add nsw i32 %27, 1
  store i32 %28, i32* %3, align 4
  br label %9

; <label>:29:                                     ; preds = %9
  %30 = load double, double* %2, align 8
  %31 = fdiv double %30, 1.000000e+01
  %32 = call i32 (i8*, ...) @printf(i8* getelementptr inbounds ([3 x i8], [3 x i8]* @.str, i32 0, i32 0), double %31)
  ret i32 0
}

; Function Attrs: nounwind
declare dso_local i64 @_ZNSt6chrono3_V212system_clock3nowEv() #2

; Function Attrs: noinline optnone uwtable
define linkonce_odr dso_local i64 @_ZNSt6chronomiINS_3_V212system_clockENS_8durationIlSt5ratioILl1ELl1000000000EEEES6_EENSt11common_typeIJT0_T1_EE4typeERKNS_10time_pointIT_S8_EERKNSC_ISD_S9_EE(%"struct.std::chrono::time_point"* dereferenceable(8), %"struct.std::chrono::time_point"* dereferenceable(8)) #4 comdat {
  %3 = alloca %"struct.std::chrono::duration", align 8
  %4 = alloca %"struct.std::chrono::time_point"*, align 8
  %5 = alloca %"struct.std::chrono::time_point"*, align 8
  %6 = alloca %"struct.std::chrono::duration", align 8
  %7 = alloca %"struct.std::chrono::duration", align 8
  store %"struct.std::chrono::time_point"* %0, %"struct.std::chrono::time_point"** %4, align 8
  store %"struct.std::chrono::time_point"* %1, %"struct.std::chrono::time_point"** %5, align 8
  %8 = load %"struct.std::chrono::time_point"*, %"struct.std::chrono::time_point"** %4, align 8
  %9 = call i64 @_ZNKSt6chrono10time_pointINS_3_V212system_clockENS_8durationIlSt5ratioILl1ELl1000000000EEEEE16time_since_epochEv(%"struct.std::chrono::time_point"* %8)
  %10 = getelementptr inbounds %"struct.std::chrono::duration", %"struct.std::chrono::duration"* %6, i32 0, i32 0
  store i64 %9, i64* %10, align 8
  %11 = load %"struct.std::chrono::time_point"*, %"struct.std::chrono::time_point"** %5, align 8
  %12 = call i64 @_ZNKSt6chrono10time_pointINS_3_V212system_clockENS_8durationIlSt5ratioILl1ELl1000000000EEEEE16time_since_epochEv(%"struct.std::chrono::time_point"* %11)
  %13 = getelementptr inbounds %"struct.std::chrono::duration", %"struct.std::chrono::duration"* %7, i32 0, i32 0
  store i64 %12, i64* %13, align 8
  %14 = call i64 @_ZNSt6chronomiIlSt5ratioILl1ELl1000000000EElS2_EENSt11common_typeIJNS_8durationIT_T0_EENS4_IT1_T2_EEEE4typeERKS7_RKSA_(%"struct.std::chrono::duration"* dereferenceable(8) %6, %"struct.std::chrono::duration"* dereferenceable(8) %7)
  %15 = getelementptr inbounds %"struct.std::chrono::duration", %"struct.std::chrono::duration"* %3, i32 0, i32 0
  store i64 %14, i64* %15, align 8
  %16 = getelementptr inbounds %"struct.std::chrono::duration", %"struct.std::chrono::duration"* %3, i32 0, i32 0
  %17 = load i64, i64* %16, align 8
  ret i64 %17
}

; Function Attrs: noinline optnone uwtable
define linkonce_odr dso_local void @_ZNSt6chrono8durationIdSt5ratioILl1ELl1EEEC2IlS1_ILl1ELl1000000000EEvEERKNS0_IT_T0_EE(%"struct.std::chrono::duration.0"*, %"struct.std::chrono::duration"* dereferenceable(8)) unnamed_addr #4 comdat align 2 {
  %3 = alloca %"struct.std::chrono::duration.0"*, align 8
  %4 = alloca %"struct.std::chrono::duration"*, align 8
  %5 = alloca %"struct.std::chrono::duration.0", align 8
  store %"struct.std::chrono::duration.0"* %0, %"struct.std::chrono::duration.0"** %3, align 8
  store %"struct.std::chrono::duration"* %1, %"struct.std::chrono::duration"** %4, align 8
  %6 = load %"struct.std::chrono::duration.0"*, %"struct.std::chrono::duration.0"** %3, align 8
  %7 = getelementptr inbounds %"struct.std::chrono::duration.0", %"struct.std::chrono::duration.0"* %6, i32 0, i32 0
  %8 = load %"struct.std::chrono::duration"*, %"struct.std::chrono::duration"** %4, align 8
  %9 = call double @_ZNSt6chrono13duration_castINS_8durationIdSt5ratioILl1ELl1EEEElS2_ILl1ELl1000000000EEEENSt9enable_ifIXsr13__is_durationIT_EE5valueES7_E4typeERKNS1_IT0_T1_EE(%"struct.std::chrono::duration"* dereferenceable(8) %8)
  %10 = getelementptr inbounds %"struct.std::chrono::duration.0", %"struct.std::chrono::duration.0"* %5, i32 0, i32 0
  store double %9, double* %10, align 8
  %11 = call double @_ZNKSt6chrono8durationIdSt5ratioILl1ELl1EEE5countEv(%"struct.std::chrono::duration.0"* %5)
  store double %11, double* %7, align 8
  ret void
}

; Function Attrs: noinline nounwind optnone uwtable
define linkonce_odr dso_local double @_ZNKSt6chrono8durationIdSt5ratioILl1ELl1EEE5countEv(%"struct.std::chrono::duration.0"*) #6 comdat align 2 {
  %2 = alloca %"struct.std::chrono::duration.0"*, align 8
  store %"struct.std::chrono::duration.0"* %0, %"struct.std::chrono::duration.0"** %2, align 8
  %3 = load %"struct.std::chrono::duration.0"*, %"struct.std::chrono::duration.0"** %2, align 8
  %4 = getelementptr inbounds %"struct.std::chrono::duration.0", %"struct.std::chrono::duration.0"* %3, i32 0, i32 0
  %5 = load double, double* %4, align 8
  ret double %5
}

declare dso_local i32 @printf(i8*, ...) #1

; Function Attrs: noinline optnone uwtable
define linkonce_odr dso_local i64 @_ZNSt6chronomiIlSt5ratioILl1ELl1000000000EElS2_EENSt11common_typeIJNS_8durationIT_T0_EENS4_IT1_T2_EEEE4typeERKS7_RKSA_(%"struct.std::chrono::duration"* dereferenceable(8), %"struct.std::chrono::duration"* dereferenceable(8)) #4 comdat {
  %3 = alloca %"struct.std::chrono::duration", align 8
  %4 = alloca %"struct.std::chrono::duration"*, align 8
  %5 = alloca %"struct.std::chrono::duration"*, align 8
  %6 = alloca i64, align 8
  %7 = alloca %"struct.std::chrono::duration", align 8
  %8 = alloca %"struct.std::chrono::duration", align 8
  store %"struct.std::chrono::duration"* %0, %"struct.std::chrono::duration"** %4, align 8
  store %"struct.std::chrono::duration"* %1, %"struct.std::chrono::duration"** %5, align 8
  %9 = load %"struct.std::chrono::duration"*, %"struct.std::chrono::duration"** %4, align 8
  %10 = bitcast %"struct.std::chrono::duration"* %7 to i8*
  %11 = bitcast %"struct.std::chrono::duration"* %9 to i8*
  call void @llvm.memcpy.p0i8.p0i8.i64(i8* align 8 %10, i8* align 8 %11, i64 8, i1 false)
  %12 = call i64 @_ZNKSt6chrono8durationIlSt5ratioILl1ELl1000000000EEE5countEv(%"struct.std::chrono::duration"* %7)
  %13 = load %"struct.std::chrono::duration"*, %"struct.std::chrono::duration"** %5, align 8
  %14 = bitcast %"struct.std::chrono::duration"* %8 to i8*
  %15 = bitcast %"struct.std::chrono::duration"* %13 to i8*
  call void @llvm.memcpy.p0i8.p0i8.i64(i8* align 8 %14, i8* align 8 %15, i64 8, i1 false)
  %16 = call i64 @_ZNKSt6chrono8durationIlSt5ratioILl1ELl1000000000EEE5countEv(%"struct.std::chrono::duration"* %8)
  %17 = sub nsw i64 %12, %16
  store i64 %17, i64* %6, align 8
  call void @_ZNSt6chrono8durationIlSt5ratioILl1ELl1000000000EEEC2IlvEERKT_(%"struct.std::chrono::duration"* %3, i64* dereferenceable(8) %6)
  %18 = getelementptr inbounds %"struct.std::chrono::duration", %"struct.std::chrono::duration"* %3, i32 0, i32 0
  %19 = load i64, i64* %18, align 8
  ret i64 %19
}

; Function Attrs: noinline nounwind optnone uwtable
define linkonce_odr dso_local i64 @_ZNKSt6chrono10time_pointINS_3_V212system_clockENS_8durationIlSt5ratioILl1ELl1000000000EEEEE16time_since_epochEv(%"struct.std::chrono::time_point"*) #6 comdat align 2 {
  %2 = alloca %"struct.std::chrono::duration", align 8
  %3 = alloca %"struct.std::chrono::time_point"*, align 8
  store %"struct.std::chrono::time_point"* %0, %"struct.std::chrono::time_point"** %3, align 8
  %4 = load %"struct.std::chrono::time_point"*, %"struct.std::chrono::time_point"** %3, align 8
  %5 = getelementptr inbounds %"struct.std::chrono::time_point", %"struct.std::chrono::time_point"* %4, i32 0, i32 0
  %6 = bitcast %"struct.std::chrono::duration"* %2 to i8*
  %7 = bitcast %"struct.std::chrono::duration"* %5 to i8*
  call void @llvm.memcpy.p0i8.p0i8.i64(i8* align 8 %6, i8* align 8 %7, i64 8, i1 false)
  %8 = getelementptr inbounds %"struct.std::chrono::duration", %"struct.std::chrono::duration"* %2, i32 0, i32 0
  %9 = load i64, i64* %8, align 8
  ret i64 %9
}

; Function Attrs: argmemonly nounwind
declare void @llvm.memcpy.p0i8.p0i8.i64(i8* nocapture writeonly, i8* nocapture readonly, i64, i1) #7

; Function Attrs: noinline nounwind optnone uwtable
define linkonce_odr dso_local i64 @_ZNKSt6chrono8durationIlSt5ratioILl1ELl1000000000EEE5countEv(%"struct.std::chrono::duration"*) #6 comdat align 2 {
  %2 = alloca %"struct.std::chrono::duration"*, align 8
  store %"struct.std::chrono::duration"* %0, %"struct.std::chrono::duration"** %2, align 8
  %3 = load %"struct.std::chrono::duration"*, %"struct.std::chrono::duration"** %2, align 8
  %4 = getelementptr inbounds %"struct.std::chrono::duration", %"struct.std::chrono::duration"* %3, i32 0, i32 0
  %5 = load i64, i64* %4, align 8
  ret i64 %5
}

; Function Attrs: noinline nounwind optnone uwtable
define linkonce_odr dso_local void @_ZNSt6chrono8durationIlSt5ratioILl1ELl1000000000EEEC2IlvEERKT_(%"struct.std::chrono::duration"*, i64* dereferenceable(8)) unnamed_addr #6 comdat align 2 {
  %3 = alloca %"struct.std::chrono::duration"*, align 8
  %4 = alloca i64*, align 8
  store %"struct.std::chrono::duration"* %0, %"struct.std::chrono::duration"** %3, align 8
  store i64* %1, i64** %4, align 8
  %5 = load %"struct.std::chrono::duration"*, %"struct.std::chrono::duration"** %3, align 8
  %6 = getelementptr inbounds %"struct.std::chrono::duration", %"struct.std::chrono::duration"* %5, i32 0, i32 0
  %7 = load i64*, i64** %4, align 8
  %8 = load i64, i64* %7, align 8
  store i64 %8, i64* %6, align 8
  ret void
}

; Function Attrs: noinline optnone uwtable
define linkonce_odr dso_local double @_ZNSt6chrono13duration_castINS_8durationIdSt5ratioILl1ELl1EEEElS2_ILl1ELl1000000000EEEENSt9enable_ifIXsr13__is_durationIT_EE5valueES7_E4typeERKNS1_IT0_T1_EE(%"struct.std::chrono::duration"* dereferenceable(8)) #4 comdat {
  %2 = alloca %"struct.std::chrono::duration.0", align 8
  %3 = alloca %"struct.std::chrono::duration"*, align 8
  store %"struct.std::chrono::duration"* %0, %"struct.std::chrono::duration"** %3, align 8
  %4 = load %"struct.std::chrono::duration"*, %"struct.std::chrono::duration"** %3, align 8
  %5 = call double @_ZNSt6chrono20__duration_cast_implINS_8durationIdSt5ratioILl1ELl1EEEES2_ILl1ELl1000000000EEdLb1ELb0EE6__castIlS5_EES4_RKNS1_IT_T0_EE(%"struct.std::chrono::duration"* dereferenceable(8) %4)
  %6 = getelementptr inbounds %"struct.std::chrono::duration.0", %"struct.std::chrono::duration.0"* %2, i32 0, i32 0
  store double %5, double* %6, align 8
  %7 = getelementptr inbounds %"struct.std::chrono::duration.0", %"struct.std::chrono::duration.0"* %2, i32 0, i32 0
  %8 = load double, double* %7, align 8
  ret double %8
}

; Function Attrs: noinline optnone uwtable
define linkonce_odr dso_local double @_ZNSt6chrono20__duration_cast_implINS_8durationIdSt5ratioILl1ELl1EEEES2_ILl1ELl1000000000EEdLb1ELb0EE6__castIlS5_EES4_RKNS1_IT_T0_EE(%"struct.std::chrono::duration"* dereferenceable(8)) #4 comdat align 2 {
  %2 = alloca %"struct.std::chrono::duration.0", align 8
  %3 = alloca %"struct.std::chrono::duration"*, align 8
  %4 = alloca double, align 8
  store %"struct.std::chrono::duration"* %0, %"struct.std::chrono::duration"** %3, align 8
  %5 = load %"struct.std::chrono::duration"*, %"struct.std::chrono::duration"** %3, align 8
  %6 = call i64 @_ZNKSt6chrono8durationIlSt5ratioILl1ELl1000000000EEE5countEv(%"struct.std::chrono::duration"* %5)
  %7 = sitofp i64 %6 to double
  %8 = fdiv double %7, 1.000000e+09
  store double %8, double* %4, align 8
  call void @_ZNSt6chrono8durationIdSt5ratioILl1ELl1EEEC2IdvEERKT_(%"struct.std::chrono::duration.0"* %2, double* dereferenceable(8) %4)
  %9 = getelementptr inbounds %"struct.std::chrono::duration.0", %"struct.std::chrono::duration.0"* %2, i32 0, i32 0
  %10 = load double, double* %9, align 8
  ret double %10
}

; Function Attrs: noinline nounwind optnone uwtable
define linkonce_odr dso_local void @_ZNSt6chrono8durationIdSt5ratioILl1ELl1EEEC2IdvEERKT_(%"struct.std::chrono::duration.0"*, double* dereferenceable(8)) unnamed_addr #6 comdat align 2 {
  %3 = alloca %"struct.std::chrono::duration.0"*, align 8
  %4 = alloca double*, align 8
  store %"struct.std::chrono::duration.0"* %0, %"struct.std::chrono::duration.0"** %3, align 8
  store double* %1, double** %4, align 8
  %5 = load %"struct.std::chrono::duration.0"*, %"struct.std::chrono::duration.0"** %3, align 8
  %6 = getelementptr inbounds %"struct.std::chrono::duration.0", %"struct.std::chrono::duration.0"* %5, i32 0, i32 0
  %7 = load double*, double** %4, align 8
  %8 = load double, double* %7, align 8
  store double %8, double* %6, align 8
  ret void
}

; Function Attrs: noinline uwtable
define internal void @_GLOBAL__sub_I_teste.cpp() #0 section ".text.startup" {
  call void @__cxx_global_var_init()
  ret void
}

attributes #0 = { noinline uwtable "correctly-rounded-divide-sqrt-fp-math"="false" "disable-tail-calls"="false" "less-precise-fpmad"="false" "min-legal-vector-width"="0" "no-frame-pointer-elim"="true" "no-frame-pointer-elim-non-leaf" "no-infs-fp-math"="false" "no-jump-tables"="false" "no-nans-fp-math"="false" "no-signed-zeros-fp-math"="false" "no-trapping-math"="false" "stack-protector-buffer-size"="8" "target-cpu"="x86-64" "target-features"="+fxsr,+mmx,+sse,+sse2,+x87" "unsafe-fp-math"="false" "use-soft-float"="false" }
attributes #1 = { "correctly-rounded-divide-sqrt-fp-math"="false" "disable-tail-calls"="false" "less-precise-fpmad"="false" "no-frame-pointer-elim"="true" "no-frame-pointer-elim-non-leaf" "no-infs-fp-math"="false" "no-nans-fp-math"="false" "no-signed-zeros-fp-math"="false" "no-trapping-math"="false" "stack-protector-buffer-size"="8" "target-cpu"="x86-64" "target-features"="+fxsr,+mmx,+sse,+sse2,+x87" "unsafe-fp-math"="false" "use-soft-float"="false" }
attributes #2 = { nounwind "correctly-rounded-divide-sqrt-fp-math"="false" "disable-tail-calls"="false" "less-precise-fpmad"="false" "no-frame-pointer-elim"="true" "no-frame-pointer-elim-non-leaf" "no-infs-fp-math"="false" "no-nans-fp-math"="false" "no-signed-zeros-fp-math"="false" "no-trapping-math"="false" "stack-protector-buffer-size"="8" "target-cpu"="x86-64" "target-features"="+fxsr,+mmx,+sse,+sse2,+x87" "unsafe-fp-math"="false" "use-soft-float"="false" }
attributes #3 = { nounwind }
attributes #4 = { noinline optnone uwtable "correctly-rounded-divide-sqrt-fp-math"="false" "disable-tail-calls"="false" "less-precise-fpmad"="false" "min-legal-vector-width"="0" "no-frame-pointer-elim"="true" "no-frame-pointer-elim-non-leaf" "no-infs-fp-math"="false" "no-jump-tables"="false" "no-nans-fp-math"="false" "no-signed-zeros-fp-math"="false" "no-trapping-math"="false" "stack-protector-buffer-size"="8" "target-cpu"="x86-64" "target-features"="+fxsr,+mmx,+sse,+sse2,+x87" "unsafe-fp-math"="false" "use-soft-float"="false" }
attributes #5 = { noinline norecurse optnone uwtable "correctly-rounded-divide-sqrt-fp-math"="false" "disable-tail-calls"="false" "less-precise-fpmad"="false" "min-legal-vector-width"="0" "no-frame-pointer-elim"="true" "no-frame-pointer-elim-non-leaf" "no-infs-fp-math"="false" "no-jump-tables"="false" "no-nans-fp-math"="false" "no-signed-zeros-fp-math"="false" "no-trapping-math"="false" "stack-protector-buffer-size"="8" "target-cpu"="x86-64" "target-features"="+fxsr,+mmx,+sse,+sse2,+x87" "unsafe-fp-math"="false" "use-soft-float"="false" }
attributes #6 = { noinline nounwind optnone uwtable "correctly-rounded-divide-sqrt-fp-math"="false" "disable-tail-calls"="false" "less-precise-fpmad"="false" "min-legal-vector-width"="0" "no-frame-pointer-elim"="true" "no-frame-pointer-elim-non-leaf" "no-infs-fp-math"="false" "no-jump-tables"="false" "no-nans-fp-math"="false" "no-signed-zeros-fp-math"="false" "no-trapping-math"="false" "stack-protector-buffer-size"="8" "target-cpu"="x86-64" "target-features"="+fxsr,+mmx,+sse,+sse2,+x87" "unsafe-fp-math"="false" "use-soft-float"="false" }
attributes #7 = { argmemonly nounwind }

!llvm.module.flags = !{!0}
!llvm.ident = !{!1}

!0 = !{i32 1, !"wchar_size", i32 4}
!1 = !{!"clang version 8.0.1-svn363027-1~exp1~20190611211629.77 (branches/release_80)"}
